; Function Attrs: nounwind uwtable
define internal ptr @deque_appendleft(ptr noundef captures(none) %0, ptr noundef %1) #0 {
  %3 = load i32, ptr %1, align 8, !tbaa !20
  %4 = icmp slt i32 %3, 0
  br i1 %4, label %deque_appendleft_impl.exit, label %5

5:                                                ; preds = %2
  %6 = add nuw i32 %3, 1
  store i32 %6, ptr %1, align 8, !tbaa !20
  br label %deque_appendleft_impl.exit

deque_appendleft_impl.exit:                       ; preds = %2, %5
  %7 = getelementptr inbounds nuw i8, ptr %0, i64 64
  %8 = load i64, ptr %7, align 8, !tbaa !45
  %9 = tail call fastcc i32 @deque_appendleft_lock_held(ptr noundef %0, ptr noundef nonnull %1, i64 noundef %8)
  %10 = icmp slt i32 %9, 0
  %._Py_NoneStruct.i = select i1 %10, ptr null, ptr @_Py_NoneStruct
  ret ptr %._Py_NoneStruct.i
}